; Function Attrs: mustprogress nofree norecurse nosync nounwind memory(argmem: write) uwtable
define void @_Z19gmx_mat4_init_unityPA4_f(ptr nocapture noundef writeonly %0) local_unnamed_addr #2 {
  br label %.preheader

.preheader:                                       ; preds = %1, %5
  %indvars.iv15 = phi i64 [ 0, %1 ], [ %indvars.iv.next16, %5 ]
  br label %2

2:                                                ; preds = %.preheader, %2
  %indvars.iv = phi i64 [ 0, %.preheader ], [ %indvars.iv.next, %2 ]
  %3 = icmp eq i64 %indvars.iv15, %indvars.iv
  %spec.select = select i1 %3, float 1.000000e+00, float 0.000000e+00
  %4 = getelementptr inbounds [4 x float], ptr %0, i64 %indvars.iv15, i64 %indvars.iv
  store float %spec.select, ptr %4, align 4
  %indvars.iv.next = add nuw nsw i64 %indvars.iv, 1
  %exitcond.not = icmp eq i64 %indvars.iv.next, 4
  br i1 %exitcond.not, label %5, label %2, !llvm.loop !12

5:                                                ; preds = %2
  %indvars.iv.next16 = add nuw nsw i64 %indvars.iv15, 1
  %exitcond18.not = icmp eq i64 %indvars.iv.next16, 4
  br i1 %exitcond18.not, label %6, label %.preheader, !llvm.loop !13

6:                                                ; preds = %5
  ret void
}